; Function Attrs: mustprogress nofree norecurse nosync nounwind willreturn memory(read, inaccessiblemem: none) uwtable
define hidden noundef zeroext i1 @_ZN12Continuation23is_continuation_mountedEP10JavaThreadP7oopDesc(ptr noundef readonly %0, ptr noundef readnone %1) local_unnamed_addr #3 align 2 {
  %3 = icmp eq ptr %0, null
  %4 = icmp eq ptr %1, null
  %or.cond.i = or i1 %3, %4
  br i1 %or.cond.i, label %_ZN12Continuation39get_continuation_entry_for_continuationEP10JavaThreadP7oopDesc.exit, label %5

5:                                                ; preds = %2
  %6 = getelementptr inbounds i8, ptr %0, i64 1336
  %.014.i = load ptr, ptr %6, align 8
  %.not15.i = icmp eq ptr %.014.i, null
  br i1 %.not15.i, label %_ZN12Continuation39get_continuation_entry_for_continuationEP10JavaThreadP7oopDesc.exit, label %.lr.ph.i

.lr.ph.i:                                         ; preds = %5, %10
  %.016.i = phi ptr [ %.0.i, %10 ], [ %.014.i, %5 ]
  %7 = getelementptr inbounds i8, ptr %.016.i, i64 16
  %8 = load ptr, ptr %7, align 8
  %9 = icmp eq ptr %8, %1
  br i1 %9, label %_ZN12Continuation39get_continuation_entry_for_continuationEP10JavaThreadP7oopDesc.exit, label %10

10:                                               ; preds = %.lr.ph.i
  %11 = getelementptr inbounds i8, ptr %.016.i, i64 8
  %.0.i = load ptr, ptr %11, align 8
  %.not.i = icmp eq ptr %.0.i, null
  br i1 %.not.i, label %_ZN12Continuation39get_continuation_entry_for_continuationEP10JavaThreadP7oopDesc.exit, label %.lr.ph.i, !llvm.loop !8

_ZN12Continuation39get_continuation_entry_for_continuationEP10JavaThreadP7oopDesc.exit: ; preds = %.lr.ph.i, %10, %2, %5
  %.011.i = phi i1 [ false, %2 ], [ false, %5 ], [ %9, %10 ], [ %9, %.lr.ph.i ]
  ret i1 %.011.i
}